target datalayout = "e-m:e-p270:32:32-p271:32:32-p272:64:64-i64:64-i128:128-f80:128-n8:16:32:64-S128"
target triple = "x86_64-pc-linux-gnu"

%struct._connParams = type { ptr, ptr, ptr, ptr, i32, ptr }
%struct.PQExpBufferData = type { ptr, i64, i64 }

@main.if_exists = internal global i32 0, align 4
@.str.10 = private unnamed_addr constant [13 x i8] c"pgscripts-18\00", align 1
@.str.11 = private unnamed_addr constant [7 x i8] c"dropdb\00", align 1
@.str.12 = private unnamed_addr constant [12 x i8] c"efh:ip:U:wW\00", align 1
@optarg = external global ptr, align 8
@.str.13 = private unnamed_addr constant [38 x i8] c"Try \22%s --help\22 for more information.\00", align 1
@optind = external global i32, align 4
@.str.14 = private unnamed_addr constant [40 x i8] c"missing required argument database name\00", align 1
@.str.15 = private unnamed_addr constant [48 x i8] c"too many command-line arguments (first is \22%s\22)\00", align 1
@.str.16 = private unnamed_addr constant [44 x i8] c"Database \22%s\22 will be permanently removed.\0A\00", align 1
@.str.17 = private unnamed_addr constant [14 x i8] c"Are you sure?\00", align 1
@.str.18 = private unnamed_addr constant [9 x i8] c"postgres\00", align 1
@.str.19 = private unnamed_addr constant [10 x i8] c"template1\00", align 1
@.str.20 = private unnamed_addr constant [22 x i8] c"DROP DATABASE %s%s%s;\00", align 1
@.str.21 = private unnamed_addr constant [11 x i8] c"IF EXISTS \00", align 1
@.str.22 = private unnamed_addr constant [1 x i8] zeroinitializer, align 1
@.str.23 = private unnamed_addr constant [14 x i8] c" WITH (FORCE)\00", align 1
@.str.24 = private unnamed_addr constant [4 x i8] c"%s\0A\00", align 1
@.str.25 = private unnamed_addr constant [28 x i8] c"database removal failed: %s\00", align 1

; Function Attrs: nounwind uwtable
define dso_local i32 @main(i32 noundef %0, ptr noundef %1) #0 {
  %3 = alloca i32, align 4
  %4 = alloca i32, align 4
  %5 = alloca ptr, align 8
  %6 = alloca ptr, align 8
  %7 = alloca i32, align 4
  %8 = alloca i32, align 4
  %9 = alloca ptr, align 8
  %10 = alloca ptr, align 8
  %11 = alloca ptr, align 8
  %12 = alloca ptr, align 8
  %13 = alloca ptr, align 8
  %14 = alloca i32, align 4
  %15 = alloca %struct._connParams, align 8
  %16 = alloca i8, align 1
  %17 = alloca i8, align 1
  %18 = alloca i8, align 1
  %19 = alloca %struct.PQExpBufferData, align 8
  %20 = alloca ptr, align 8
  %21 = alloca ptr, align 8
  store i32 0, ptr %3, align 4
  store i32 %0, ptr %4, align 4
  store ptr %1, ptr %5, align 8
  call void @llvm.lifetime.start.p0(i64 8, ptr %6) #6
  call void @llvm.lifetime.start.p0(i64 4, ptr %7) #6
  call void @llvm.lifetime.start.p0(i64 4, ptr %8) #6
  call void @llvm.lifetime.start.p0(i64 8, ptr %9) #6
  store ptr null, ptr %9, align 8
  call void @llvm.lifetime.start.p0(i64 8, ptr %10) #6
  store ptr null, ptr %10, align 8
  call void @llvm.lifetime.start.p0(i64 8, ptr %11) #6
  store ptr null, ptr %11, align 8
  call void @llvm.lifetime.start.p0(i64 8, ptr %12) #6
  store ptr null, ptr %12, align 8
  call void @llvm.lifetime.start.p0(i64 8, ptr %13) #6
  store ptr null, ptr %13, align 8
  call void @llvm.lifetime.start.p0(i64 4, ptr %14) #6
  store i32 0, ptr %14, align 4
  call void @llvm.lifetime.start.p0(i64 48, ptr %15) #6
  call void @llvm.lifetime.start.p0(i64 1, ptr %16) #6
  store i8 0, ptr %16, align 1
  call void @llvm.lifetime.start.p0(i64 1, ptr %17) #6
  store i8 0, ptr %17, align 1
  call void @llvm.lifetime.start.p0(i64 1, ptr %18) #6
  store i8 0, ptr %18, align 1
  call void @llvm.lifetime.start.p0(i64 24, ptr %19) #6
  call void @llvm.lifetime.start.p0(i64 8, ptr %20) #6
  call void @llvm.lifetime.start.p0(i64 8, ptr %21) #6
  %22 = load ptr, ptr %5, align 8
  %23 = getelementptr inbounds ptr, ptr %22, i64 0
  %24 = load ptr, ptr %23, align 8
  call void @pg_logging_init(ptr noundef %24)
  %25 = load ptr, ptr %5, align 8
  %26 = getelementptr inbounds ptr, ptr %25, i64 0
  %27 = load ptr, ptr %26, align 8
  %28 = call ptr @get_progname(ptr noundef %27)
  store ptr %28, ptr %6, align 8
  %29 = load ptr, ptr %5, align 8
  %30 = getelementptr inbounds ptr, ptr %29, i64 0
  %31 = load ptr, ptr %30, align 8
  call void @set_pglocale_pgservice(ptr noundef %31, ptr noundef @.str.10)
  %32 = load i32, ptr %4, align 4
  %33 = load ptr, ptr %5, align 8
  call void @handle_help_version_opts(i32 noundef %32, ptr noundef %33, ptr noundef @.str.11, ptr noundef @help)
  br label %34

34:                                               ; preds = %60, %2
  %35 = load i32, ptr %4, align 4
  %36 = load ptr, ptr %5, align 8
  %37 = call i32 @getopt_long(i32 noundef %35, ptr noundef %36, ptr noundef @.str.12, ptr noundef @main.long_options, ptr noundef %7) #6
  store i32 %37, ptr %8, align 4
  %38 = icmp ne i32 %37, -1
  br i1 %38, label %39, label %61

39:                                               ; preds = %34
  %40 = load i32, ptr %8, align 4
  switch i32 %40, label %58 [
    i32 101, label %41
    i32 102, label %42
    i32 104, label %43
    i32 105, label %46
    i32 112, label %47
    i32 85, label %50
    i32 119, label %53
    i32 87, label %54
    i32 0, label %60
    i32 2, label %55
  ]

41:                                               ; preds = %39
  store i8 1, ptr %16, align 1
  br label %60

42:                                               ; preds = %39
  store i8 1, ptr %18, align 1
  br label %60

43:                                               ; preds = %39
  %44 = load ptr, ptr @optarg, align 8
  %45 = call ptr @pg_strdup(ptr noundef %44)
  store ptr %45, ptr %11, align 8
  br label %60

46:                                               ; preds = %39
  store i8 1, ptr %17, align 1
  br label %60

47:                                               ; preds = %39
  %48 = load ptr, ptr @optarg, align 8
  %49 = call ptr @pg_strdup(ptr noundef %48)
  store ptr %49, ptr %12, align 8
  br label %60

50:                                               ; preds = %39
  %51 = load ptr, ptr @optarg, align 8
  %52 = call ptr @pg_strdup(ptr noundef %51)
  store ptr %52, ptr %13, align 8
  br label %60

53:                                               ; preds = %39
  store i32 1, ptr %14, align 4
  br label %60

54:                                               ; preds = %39
  store i32 2, ptr %14, align 4
  br label %60

55:                                               ; preds = %39
  %56 = load ptr, ptr @optarg, align 8
  %57 = call ptr @pg_strdup(ptr noundef %56)
  store ptr %57, ptr %10, align 8
  br label %60

58:                                               ; preds = %39
  %59 = load ptr, ptr %6, align 8
  call void (i32, i32, ptr, ...) @pg_log_generic(i32 noundef 4, i32 noundef 2, ptr noundef @.str.13, ptr noundef %59)
  call void @exit(i32 noundef 1) #7
  unreachable

60:                                               ; preds = %55, %39, %54, %53, %50, %47, %46, %43, %42, %41
  br label %34, !llvm.loop !4

61:                                               ; preds = %34
  %62 = load i32, ptr %4, align 4
  %63 = load i32, ptr @optind, align 4
  %64 = sub i32 %62, %63
  switch i32 %64, label %73 [
    i32 0, label %65
    i32 1, label %67
  ]

65:                                               ; preds = %61
  call void (i32, i32, ptr, ...) @pg_log_generic(i32 noundef 4, i32 noundef 0, ptr noundef @.str.14)
  %66 = load ptr, ptr %6, align 8
  call void (i32, i32, ptr, ...) @pg_log_generic(i32 noundef 4, i32 noundef 2, ptr noundef @.str.13, ptr noundef %66)
  call void @exit(i32 noundef 1) #7
  unreachable

67:                                               ; preds = %61
  %68 = load ptr, ptr %5, align 8
  %69 = load i32, ptr @optind, align 4
  %70 = sext i32 %69 to i64
  %71 = getelementptr inbounds ptr, ptr %68, i64 %70
  %72 = load ptr, ptr %71, align 8
  store ptr %72, ptr %9, align 8
  br label %81

73:                                               ; preds = %61
  %74 = load ptr, ptr %5, align 8
  %75 = load i32, ptr @optind, align 4
  %76 = add i32 %75, 1
  %77 = sext i32 %76 to i64
  %78 = getelementptr inbounds ptr, ptr %74, i64 %77
  %79 = load ptr, ptr %78, align 8
  call void (i32, i32, ptr, ...) @pg_log_generic(i32 noundef 4, i32 noundef 0, ptr noundef @.str.15, ptr noundef %79)
  %80 = load ptr, ptr %6, align 8
  call void (i32, i32, ptr, ...) @pg_log_generic(i32 noundef 4, i32 noundef 2, ptr noundef @.str.13, ptr noundef %80)
  call void @exit(i32 noundef 1) #7
  unreachable

81:                                               ; preds = %67
  %82 = load i8, ptr %17, align 1, !range !6, !noundef !7
  %83 = trunc i8 %82 to i1
  br i1 %83, label %84, label %90

84:                                               ; preds = %81
  %85 = load ptr, ptr %9, align 8
  %86 = call i32 (ptr, ...) @pg_printf(ptr noundef @.str.16, ptr noundef %85)
  %87 = call zeroext i1 @yesno_prompt(ptr noundef @.str.17)
  br i1 %87, label %89, label %88

88:                                               ; preds = %84
  call void @exit(i32 noundef 0) #7
  unreachable

89:                                               ; preds = %84
  br label %90

90:                                               ; preds = %89, %81
  %91 = load ptr, ptr %10, align 8
  %92 = icmp eq ptr %91, null
  br i1 %92, label %93, label %98

93:                                               ; preds = %90
  %94 = load ptr, ptr %9, align 8
  %95 = call i32 @strcmp(ptr noundef %94, ptr noundef @.str.18) #8
  %96 = icmp eq i32 %95, 0
  br i1 %96, label %97, label %98

97:                                               ; preds = %93
  store ptr @.str.19, ptr %10, align 8
  br label %98

98:                                               ; preds = %97, %93, %90
  %99 = load ptr, ptr %10, align 8
  %100 = getelementptr inbounds nuw %struct._connParams, ptr %15, i32 0, i32 0
  store ptr %99, ptr %100, align 8
  %101 = load ptr, ptr %11, align 8
  %102 = getelementptr inbounds nuw %struct._connParams, ptr %15, i32 0, i32 1
  store ptr %101, ptr %102, align 8
  %103 = load ptr, ptr %12, align 8
  %104 = getelementptr inbounds nuw %struct._connParams, ptr %15, i32 0, i32 2
  store ptr %103, ptr %104, align 8
  %105 = load ptr, ptr %13, align 8
  %106 = getelementptr inbounds nuw %struct._connParams, ptr %15, i32 0, i32 3
  store ptr %105, ptr %106, align 8
  %107 = load i32, ptr %14, align 4
  %108 = getelementptr inbounds nuw %struct._connParams, ptr %15, i32 0, i32 4
  store i32 %107, ptr %108, align 8
  %109 = getelementptr inbounds nuw %struct._connParams, ptr %15, i32 0, i32 5
  store ptr null, ptr %109, align 8
  %110 = load ptr, ptr %6, align 8
  %111 = load i8, ptr %16, align 1, !range !6, !noundef !7
  %112 = trunc i8 %111 to i1
  %113 = call ptr @connectMaintenanceDatabase(ptr noundef %15, ptr noundef %110, i1 noundef zeroext %112)
  store ptr %113, ptr %20, align 8
  call void @initPQExpBuffer(ptr noundef %19)
  %114 = load i32, ptr @main.if_exists, align 4
  %115 = icmp ne i32 %114, 0
  %116 = select i1 %115, ptr @.str.21, ptr @.str.22
  %117 = load ptr, ptr %9, align 8
  %118 = load ptr, ptr %20, align 8
  %119 = call i32 @PQclientEncoding(ptr noundef %118)
  %120 = call ptr @fmtIdEnc(ptr noundef %117, i32 noundef %119)
  %121 = load i8, ptr %18, align 1, !range !6, !noundef !7
  %122 = trunc i8 %121 to i1
  %123 = select i1 %122, ptr @.str.23, ptr @.str.22
  call void (ptr, ptr, ...) @appendPQExpBuffer(ptr noundef %19, ptr noundef @.str.20, ptr noundef %116, ptr noundef %120, ptr noundef %123)
  %124 = load i8, ptr %16, align 1, !range !6, !noundef !7
  %125 = trunc i8 %124 to i1
  br i1 %125, label %126, label %130

126:                                              ; preds = %98
  %127 = getelementptr inbounds nuw %struct.PQExpBufferData, ptr %19, i32 0, i32 0
  %128 = load ptr, ptr %127, align 8
  %129 = call i32 (ptr, ...) @pg_printf(ptr noundef @.str.24, ptr noundef %128)
  br label %130

130:                                              ; preds = %126, %98
  %131 = load ptr, ptr %20, align 8
  %132 = getelementptr inbounds nuw %struct.PQExpBufferData, ptr %19, i32 0, i32 0
  %133 = load ptr, ptr %132, align 8
  %134 = call ptr @PQexec(ptr noundef %131, ptr noundef %133)
  store ptr %134, ptr %21, align 8
  %135 = load ptr, ptr %21, align 8
  %136 = call i32 @PQresultStatus(ptr noundef %135)
  %137 = icmp ne i32 %136, 1
  br i1 %137, label %138, label %142

138:                                              ; preds = %130
  %139 = load ptr, ptr %20, align 8
  %140 = call ptr @PQerrorMessage(ptr noundef %139)
  call void (i32, i32, ptr, ...) @pg_log_generic(i32 noundef 4, i32 noundef 0, ptr noundef @.str.25, ptr noundef %140)
  %141 = load ptr, ptr %20, align 8
  call void @PQfinish(ptr noundef %141)
  call void @exit(i32 noundef 1) #7
  unreachable

142:                                              ; preds = %130
  %143 = load ptr, ptr %21, align 8
  call void @PQclear(ptr noundef %143)
  %144 = load ptr, ptr %20, align 8
  call void @PQfinish(ptr noundef %144)
  call void @exit(i32 noundef 0) #7
  unreachable
}