; Function Attrs: noreturn nounwind uwtable
define dso_local noundef i32 @main(i32 noundef %0, ptr noundef %1) local_unnamed_addr #0 {
  %3 = alloca i32, align 4
  %4 = alloca %struct._connParams, align 8
  %5 = alloca %struct.PQExpBufferData, align 8
  call void @llvm.lifetime.start.p0(i64 4, ptr nonnull %3) #7
  call void @llvm.lifetime.start.p0(i64 48, ptr nonnull %4) #7
  call void @llvm.lifetime.start.p0(i64 24, ptr nonnull %5) #7
  %6 = load ptr, ptr %1, align 8
  tail call void @pg_logging_init(ptr noundef %6) #7
  %7 = load ptr, ptr %1, align 8
  %8 = tail call ptr @get_progname(ptr noundef %7) #7
  %9 = load ptr, ptr %1, align 8
  tail call void @set_pglocale_pgservice(ptr noundef %9, ptr noundef nonnull @.str.10) #7
  tail call void @handle_help_version_opts(i32 noundef %0, ptr noundef nonnull %1, ptr noundef nonnull @.str.11, ptr noundef nonnull @help) #7
  br label %10

10:                                               ; preds = %.backedge, %2
  %.046 = phi ptr [ null, %2 ], [ %.046.be, %.backedge ]
  %.044 = phi ptr [ null, %2 ], [ %.044.be, %.backedge ]
  %.042 = phi ptr [ null, %2 ], [ %.042.be, %.backedge ]
  %.040 = phi i32 [ 0, %2 ], [ %.040.be, %.backedge ]
  %.038 = phi i1 [ false, %2 ], [ %.038.be, %.backedge ]
  %.036 = phi i1 [ false, %2 ], [ %.036.be, %.backedge ]
  %.034 = phi i1 [ false, %2 ], [ %.034.be, %.backedge ]
  %.0 = phi ptr [ null, %2 ], [ %.0.be, %.backedge ]
  %11 = call i32 @getopt_long(i32 noundef %0, ptr noundef nonnull %1, ptr noundef nonnull @.str.12, ptr noundef nonnull @main.long_options, ptr noundef nonnull %3) #7
  switch i32 %11, label %29 [
    i32 -1, label %30
    i32 101, label %12
    i32 102, label %13
    i32 104, label %14
    i32 105, label %17
    i32 112, label %18
    i32 85, label %21
    i32 119, label %24
    i32 87, label %25
    i32 0, label %.backedge
    i32 2, label %26
  ]

.backedge:                                        ; preds = %10, %26, %25, %24, %21, %18, %17, %14, %13, %12
  %.046.be = phi ptr [ %.046, %26 ], [ %.046, %25 ], [ %.046, %24 ], [ %.046, %21 ], [ %.046, %18 ], [ %.046, %17 ], [ %16, %14 ], [ %.046, %13 ], [ %.046, %12 ], [ %.046, %10 ]
  %.044.be = phi ptr [ %.044, %26 ], [ %.044, %25 ], [ %.044, %24 ], [ %.044, %21 ], [ %20, %18 ], [ %.044, %17 ], [ %.044, %14 ], [ %.044, %13 ], [ %.044, %12 ], [ %.044, %10 ]
  %.042.be = phi ptr [ %.042, %26 ], [ %.042, %25 ], [ %.042, %24 ], [ %23, %21 ], [ %.042, %18 ], [ %.042, %17 ], [ %.042, %14 ], [ %.042, %13 ], [ %.042, %12 ], [ %.042, %10 ]
  %.040.be = phi i32 [ %.040, %26 ], [ 2, %25 ], [ 1, %24 ], [ %.040, %21 ], [ %.040, %18 ], [ %.040, %17 ], [ %.040, %14 ], [ %.040, %13 ], [ %.040, %12 ], [ %.040, %10 ]
  %.038.be = phi i1 [ %.038, %26 ], [ %.038, %25 ], [ %.038, %24 ], [ %.038, %21 ], [ %.038, %18 ], [ %.038, %17 ], [ %.038, %14 ], [ %.038, %13 ], [ true, %12 ], [ %.038, %10 ]
  %.036.be = phi i1 [ %.036, %26 ], [ %.036, %25 ], [ %.036, %24 ], [ %.036, %21 ], [ %.036, %18 ], [ true, %17 ], [ %.036, %14 ], [ %.036, %13 ], [ %.036, %12 ], [ %.036, %10 ]
  %.034.be = phi i1 [ %.034, %26 ], [ %.034, %25 ], [ %.034, %24 ], [ %.034, %21 ], [ %.034, %18 ], [ %.034, %17 ], [ %.034, %14 ], [ true, %13 ], [ %.034, %12 ], [ %.034, %10 ]
  %.0.be = phi ptr [ %28, %26 ], [ %.0, %25 ], [ %.0, %24 ], [ %.0, %21 ], [ %.0, %18 ], [ %.0, %17 ], [ %.0, %14 ], [ %.0, %13 ], [ %.0, %12 ], [ %.0, %10 ]
  br label %10, !llvm.loop !4

12:                                               ; preds = %10
  br label %.backedge

13:                                               ; preds = %10
  br label %.backedge

14:                                               ; preds = %10
  %15 = load ptr, ptr @optarg, align 8
  %16 = call ptr @pg_strdup(ptr noundef %15) #7
  br label %.backedge

17:                                               ; preds = %10
  br label %.backedge

18:                                               ; preds = %10
  %19 = load ptr, ptr @optarg, align 8
  %20 = call ptr @pg_strdup(ptr noundef %19) #7
  br label %.backedge

21:                                               ; preds = %10
  %22 = load ptr, ptr @optarg, align 8
  %23 = call ptr @pg_strdup(ptr noundef %22) #7
  br label %.backedge

24:                                               ; preds = %10
  br label %.backedge

25:                                               ; preds = %10
  br label %.backedge

26:                                               ; preds = %10
  %27 = load ptr, ptr @optarg, align 8
  %28 = call ptr @pg_strdup(ptr noundef %27) #7
  br label %.backedge

29:                                               ; preds = %10
  call void (i32, i32, ptr, ...) @pg_log_generic(i32 noundef 4, i32 noundef 2, ptr noundef nonnull @.str.13, ptr noundef %8) #7
  call void @exit(i32 noundef 1) #8
  unreachable

30:                                               ; preds = %10
  %31 = load i32, ptr @optind, align 4
  %32 = sub i32 %0, %31
  switch i32 %32, label %38 [
    i32 0, label %33
    i32 1, label %34
  ]

33:                                               ; preds = %30
  call void (i32, i32, ptr, ...) @pg_log_generic(i32 noundef 4, i32 noundef 0, ptr noundef nonnull @.str.14) #7
  call void (i32, i32, ptr, ...) @pg_log_generic(i32 noundef 4, i32 noundef 2, ptr noundef nonnull @.str.13, ptr noundef %8) #7
  call void @exit(i32 noundef 1) #8
  unreachable

34:                                               ; preds = %30
  %35 = sext i32 %31 to i64
  %36 = getelementptr inbounds ptr, ptr %1, i64 %35
  %37 = load ptr, ptr %36, align 8
  br i1 %.036, label %43, label %47

38:                                               ; preds = %30
  %39 = add i32 %31, 1
  %40 = sext i32 %39 to i64
  %41 = getelementptr inbounds ptr, ptr %1, i64 %40
  %42 = load ptr, ptr %41, align 8
  call void (i32, i32, ptr, ...) @pg_log_generic(i32 noundef 4, i32 noundef 0, ptr noundef nonnull @.str.15, ptr noundef %42) #7
  call void (i32, i32, ptr, ...) @pg_log_generic(i32 noundef 4, i32 noundef 2, ptr noundef nonnull @.str.13, ptr noundef %8) #7
  call void @exit(i32 noundef 1) #8
  unreachable

43:                                               ; preds = %34
  %44 = call i32 (ptr, ...) @pg_printf(ptr noundef nonnull @.str.16, ptr noundef %37) #7
  %45 = call zeroext i1 @yesno_prompt(ptr noundef nonnull @.str.17) #7
  br i1 %45, label %47, label %46

46:                                               ; preds = %43
  call void @exit(i32 noundef 0) #9
  unreachable

47:                                               ; preds = %43, %34
  %48 = icmp eq ptr %.0, null
  br i1 %48, label %49, label %52

49:                                               ; preds = %47
  %50 = call i32 @strcmp(ptr noundef nonnull dereferenceable(1) %37, ptr noundef nonnull dereferenceable(9) @.str.18) #10
  %51 = icmp eq i32 %50, 0
  %spec.select = select i1 %51, ptr @.str.19, ptr null
  br label %52

52:                                               ; preds = %49, %47
  %.2 = phi ptr [ %.0, %47 ], [ %spec.select, %49 ]
  store ptr %.2, ptr %4, align 8
  %53 = getelementptr inbounds nuw i8, ptr %4, i64 8
  store ptr %.046, ptr %53, align 8
  %54 = getelementptr inbounds nuw i8, ptr %4, i64 16
  store ptr %.044, ptr %54, align 8
  %55 = getelementptr inbounds nuw i8, ptr %4, i64 24
  store ptr %.042, ptr %55, align 8
  %56 = getelementptr inbounds nuw i8, ptr %4, i64 32
  store i32 %.040, ptr %56, align 8
  %57 = getelementptr inbounds nuw i8, ptr %4, i64 40
  store ptr null, ptr %57, align 8
  %58 = call ptr @connectMaintenanceDatabase(ptr noundef nonnull %4, ptr noundef %8, i1 noundef zeroext %.038) #7
  call void @initPQExpBuffer(ptr noundef nonnull %5) #7
  %59 = load i32, ptr @main.if_exists, align 4
  %.not49 = icmp eq i32 %59, 0
  %60 = select i1 %.not49, ptr @.str.22, ptr @.str.21
  %61 = call i32 @PQclientEncoding(ptr noundef %58) #7
  %62 = call ptr @fmtIdEnc(ptr noundef %37, i32 noundef %61) #7
  %63 = select i1 %.034, ptr @.str.23, ptr @.str.22
  call void (ptr, ptr, ...) @appendPQExpBuffer(ptr noundef nonnull %5, ptr noundef nonnull @.str.20, ptr noundef nonnull %60, ptr noundef %62, ptr noundef nonnull %63) #7
  br i1 %.038, label %64, label %67

64:                                               ; preds = %52
  %65 = load ptr, ptr %5, align 8
  %66 = call i32 (ptr, ...) @pg_printf(ptr noundef nonnull @.str.24, ptr noundef %65) #7
  br label %67

67:                                               ; preds = %64, %52
  %68 = load ptr, ptr %5, align 8
  %69 = call ptr @PQexec(ptr noundef %58, ptr noundef %68) #7
  %70 = call i32 @PQresultStatus(ptr noundef %69) #7
  %.not50 = icmp eq i32 %70, 1
  br i1 %.not50, label %73, label %71

71:                                               ; preds = %67
  %72 = call ptr @PQerrorMessage(ptr noundef %58) #7
  call void (i32, i32, ptr, ...) @pg_log_generic(i32 noundef 4, i32 noundef 0, ptr noundef nonnull @.str.25, ptr noundef %72) #7
  call void @PQfinish(ptr noundef %58) #7
  call void @exit(i32 noundef 1) #8
  unreachable

73:                                               ; preds = %67
  call void @PQclear(ptr noundef %69) #7
  call void @PQfinish(ptr noundef %58) #7
  call void @exit(i32 noundef 0) #9
  unreachable
}